(dp0
V207486
p1
g1
sV84621
p2
g2
sV27498
p3
g3
sV207453
p4
g4
sV18027
p5
g5
sV4025
p6
g6
sV21563
p7
g7
sV207506
p8
g8
sV507524
p9
g9
sV4028
p10
g10
sV14072
p11
g11
sV207379
p12
g12
sV51306
p13
g13
sV170972
p14
g14
sV51301
p15
g15
sV51303
p16
g16
sV11260
p17
g17
sV51308
p18
g18
sV69482
p19
g19
sV174198
p20
g20
sV50215
p21
g21
sV206185
p22
g22
sV11917
p23
g23
sV76500
p24
g24
sV112604
p25
g25
sV205447
p26
g26
sV145682
p27
g27
sV59803
p28
g28
sV145686
p29
g29
sV51285
p30
g30
sV180647
p31
g31
sV16672
p32
g32
sV16675
p33
g33
sV51283
p34
g34
sV442390
p35
V47972
p36
sV71003
p37
g37
sV32659
p38
g38
sV51288
p39
g39
sV42458
p40
g40
sV42459
p41
g41
sV43184
p42
g42
sV12060
p43
g43
sV155864
p44
g44
sV6917
p45
g45
sV64840
p46
g46
sV12669
p47
g47
sV12665
p48
g48
sV155868
p49
g49
sV12660
p50
g50
sV180841
p51
g51
sV25666
p52
g52
sV207381
p53
g53
sV40017
p54
g54
sV70993
p55
g55
sV74886
p56
g56
sV29280
p57
g57
sV25743
p58
g58
sV25742
p59
g59
sV155259
p60
g60
sV131948
p61
g61
sV76439
p62
g62
sV205933
p63
g63
sV82242
p64
g64
sV106407
p65
g65
sV106405
p66
g66
sV30288
p67
g67
sV106402
p68
g68
sV106400
p69
g69
sV30285
p70
g70
sV30286
p71
g71
sV30281
p72
g72
sV30282
p73
g73
sV106408
p74
g74
sV104135
p75
g75
sV203918
p76
g76
sV171422
p77
g77
sV13112
p78
g78
sV42425
p79
g79
sV42427
p80
g80
sV12011
p81
g81
sV97344
p82
g82
sV179462
p83
g83
sV153400
p84
g84
sV57757
p85
g85
sV23445
p86
g86
sV12796
p87
g87
sV113579
p88
g88
sV174083
p89
g89
sV13868
p90
g90
sV3589
p91
g91
sV9159
p92
g92
sV42900
p93
g93
sV204490
p94
g94
sV207471
p95
g95
sV4351
p96
g96
sV204499
p97
g97
sV12845
p98
g98
sV16796
p99
g99
sV113175
p100
g100
sV174369
p101
g101
sV210770
p102
g102
sV173421
p103
g103
sV17951
p104
g104
sV170069
p105
g105
sV21925
p106
g106
sV26020
p107
g107
sV11124
p108
g108
sV207502
p109
g109
sV180663
p110
g110
sV63519
p111
g111
sV10004
p112
g112
sV171398
p113
g113
sV33472
p114
g114
sV122700
p115
g115
sV136347
p116
g116
sV49266
p117
g117
sV21052
p118
g118
sV197456
p119
g119
sV43236
p120
g120
sV197455
p121
g121
sV207522
p122
g122
sV33072
p123
g123
sV12568
p124
g124
sV132375
p125
g125
sV199873
p126
g126
sV12560
p127
g127
sV12563
p128
g128
sV12566
p129
g129
sV28925
p130
g130
sV126883
p131
g131
sV207429
p132
g132
sV207428
p133
g133
sV207427
p134
g134
sV207426
p135
g135
sV204460
p136
g136
sV207424
p137
g137
sV214988
p138
g138
sV207422
p139
g139
sV57379
p140
g140
sV3895
p141
g141
sV97320
p142
g142
sV358007
p143
g143
sV71285
p144
g144
sV56179
p145
g145
sV16101
p146
g146
sV56175
p147
g147
sV117845
p148
g148
sV75507
p149
g149
sV72517
p150
g150
sV506736
p151
V68389
p152
sV99744
p153
g153
sV69820
p154
g154
sV102239
p155
g155
sV64832
p156
g156
sV64833
p157
g157
sV64830
p158
g158
sV64831
p159
g159
sV64836
p160
g160
sV64837
p161
g161
sV64835
p162
g162
sV30550
p163
g163
sV64838
p164
g164
sV64839
p165
g165
sV14816
p166
g166
sV61142
p167
g167
sV5793
p168
g168
sV68475
p169
g169
sV137012
p170
g170
sV68471
p171
g171
sV109533
p172
g111
sV76395
p173
g173
sV25408
p174
g174
sV76399
p175
g175
sV25158
p176
g176
sV30634
p177
g177
sV51286
p178
g178
sV22053
p179
g179
sV51281
p180
g180
sV313905
p181
g181
sV31570
p182
g182
sV81271
p183
g183
sV207519
p184
g184
sV207518
p185
g185
sV207412
p186
g186
sV76499
p187
g187
sV76498
p188
g188
sV76497
p189
g189
sV76496
p190
g190
sV76495
p191
g191
sV207510
p192
g192
sV207517
p193
g193
sV207432
p194
g194
sV207515
p195
g195
sV12698
p196
g196
sV96512
p197
g197
sV207433
p198
g198
sV59585
p199
g199
sV81176
p200
g200
sV207434
p201
g201
sV189964
p202
g202
sV210892
p203
g203
sV507749
p204
g204
sV15444
p205
g205
sV207499
p206
g206
sV207436
p207
g207
sV507743
p208
g208
sV507742
p209
g209
sV507741
p210
g210
sV507740
p211
g211
sV109280
p212
g212
sV507746
p213
g213
sV9441
p214
g214
sV13947
p215
g215
sV206367
p216
g216
sV197292
p217
g217
sV206365
p218
g218
sV44943
p219
g219
sV206363
p220
g220
sV206362
p221
g221
sV206361
p222
g222
sV206360
p223
g223
sV109447
p224
g224
sV206369
p225
g225
sV206368
p226
g226
sV14761
p227
g227
sV204442
p228
g228
sV205343
p229
g229
sV76053
p230
g230
sV171991
p231
g231
sV160933
p232
g232
sV43161
p233
g233
sV76403
p234
g234
sV43167
p235
g235
sV160932
p236
g236
sV684
p237
g237
sV31607
p238
g238
sV107143
p239
g239
sV34657
p240
g240
sV136342
p241
g241
sV197410
p242
g242
sV160930
p243
g243
sV103685
p244
g244
sV57442
p245
g245
sV187968
p246
g246
sV203034
p247
g247
sV207421
p248
g248
sV207516
p249
g249
sV181973
p250
g250
sV206366
p251
g251
sV3410
p252
g252
sV507739
p253
g253
sV507736
p254
g254
sV507737
p255
g255
sV507734
p256
g256
sV507735
p257
g257
sV507732
p258
g258
sV507733
p259
g259
sV507730
p260
g260
sV507731
p261
g261
sV173903
p262
g262
sV207461
p263
g263
sV207460
p264
g264
sV207467
p265
g265
sV207466
p266
g266
sV207465
p267
g267
sV207464
p268
g268
sV173514
p269
g269
sV207469
p270
g270
sV207468
p271
g271
sV75250
p272
g272
sV28628
p273
g273
sV204508
p274
g274
sV402
p275
g275
sV42600
p276
g276
sV28963
p277
g277
sV76561
p278
g278
sV207366
p279
g279
sV74714
p280
g280
sV57729
p281
g281
sV152087
p282
g282
sV207367
p283
g283
sV122584
p284
g284
sV56884
p285
g285
sV4031
p286
g286
sV207368
p287
g287
sV4033
p288
g288
sV4035
p289
g289
sV11271
p290
g290
sV207369
p291
g291
sV11278
p292
g292
sV204531
p293
g293
sV13157
p294
g294
sV51279
p295
g295
sV181475
p296
g296
sV207481
p297
g297
sV22848
p298
g298
sV119636
p299
g299
sV13099
p300
g300
sV32949
p301
g301
sV207445
p302
g302
sV51273
p303
g303
sV51276
p304
g304
sV13158
p305
g305
sV207416
p306
g306
sV207417
p307
g307
sV12307
p308
g308
sV207415
p309
g309
sV102991
p310
g310
sV207413
p311
g311
sV170219
p312
g312
sV207411
p313
g313
sV266174
p314
g314
sV112612
p315
g315
sV170609
p316
g316
sV207418
p317
g317
sV207419
p318
g318
sV51296
p319
g319
sV207480
p320
g320
sV16660
p321
g321
sV51293
p322
g322
sV51291
p323
g323
sV12906
p324
g324
sV74821
p325
g325
sV51298
p326
g326
sV703
p327
g327
sV12639
p328
g328
sV10231
p329
g329
sV1174
p330
g330
sV14187
p331
g331
sV196602
p332
g332
sV207491
p333
g333
sV13754
p334
g334
sV26315
p335
g335
sV23973
p336
g336
sV12651
p337
g337
sV169886
p338
g338
sV100650
p339
g339
sV173234
p340
g340
sV25613
p341
g341
sV13026
p342
g342
sV169895
p343
g343
sV64843
p344
g344
sV64842
p345
g345
sV64841
p346
g346
sV13028
p347
g347
sV155366
p348
g348
sV52884
p349
g349
sV17548
p350
g350
sV30464
p351
g351
sV207513
p352
g352
sV31790
p353
g353
sV17542
p354
g354
sV136650
p355
g355
sV19308
p356
g356
sV80662
p357
g357
sV71492
p358
g358
sV13534
p359
g359
sV28799
p360
g360
sV207423
p361
g361
sV11082
p362
g362
sV182287
p363
g363
sV507744
p364
g364
sV65466
p365
g365
sV25126
p366
g366
sV74483
p367
g367
sV151743
p368
g368
sV31764
p369
g369
sV169975
p370
g370
sV207520
p371
g371
sV79752
p372
g372
sV42439
p373
g373
sV196696
p374
g374
sV12004
p375
g375
sV54793
p376
g376
sV102870
p377
g377
sV71462
p378
g378
sV206364
p379
g379
sV16394
p380
g380
sV171293
p381
g381
sV104011
p382
g382
sV178222
p383
g383
sV207511
p384
g384
sV9121
p385
g385
sV414144
p386
g386
sV274078
p387
g387
sV21942
p388
g388
sV110498
p389
g389
sV206193
p390
g390
sV171670
p391
g391
sV186040
p392
g392
sV12879
p393
g393
sV205560
p394
g394
sV25544
p395
g395
sV114050
p396
g396
sV13289
p397
g397
sV7913
p398
g398
sV132113
p399
g399
sV172474
p400
g400
sV31492
p401
g401
sV210665
p402
g402
sV74729
p403
g403
sV206358
p404
g404
sV206359
p405
g405
sV206356
p406
g406
sV206357
p407
g407
sV206354
p408
g408
sV206355
p409
g409
sV206352
p410
g410
sV206353
p411
g411
sV206350
p412
g412
sV206351
p413
g413
sV207420
p414
g414
sV2
p415
g415
sV42486
p416
g416
sV196944
p417
g417
sV331975
p418
g418
sV72858
p419
g419
sV23154
p420
g420
sV155199
p421
g421
sV374959
p422
g422
sV185881
p423
g423
sV155195
p424
g424
sV43229
p425
g425
sV177684
p426
g426
sV124536
p427
g427
sV155862
p428
g428
sV175556
p429
g429
sV27115
p430
g430
sV106380
p431
g431
sV10
p432
g432
sV12579
p433
g433
sV106384
p434
g434
sV106386
p435
g435
sV106388
p436
g436
sV106389
p437
g437
sV12570
p438
g438
sV12571
p439
g439
sV13197
p440
g440
sV207458
p441
g441
sV207459
p442
g442
sV57364
p443
g443
sV42651
p444
g444
sV207452
p445
g445
sV28891
p446
g446
sV28676
p447
g447
sV20038
p448
g448
sV70653
p449
g449
sV207457
p450
g450
sV204477
p451
g451
sV207455
p452
g452
sV173191
p453
g453
sV59741
p454
g454
sV71529
p455
g455
sV26969
p456
g456
sV71520
p457
g457
sV20469
p458
g458
sV161250
p459
g459
sV110028
p460
g460
sV29371
p461
g461
sV43310
p462
g462
sV64816
p463
g463
sV134493
p464
g464
sV11398
p465
g465
sV12610
p466
g466
sV27107
p467
g467
sV64809
p468
g468
sV21541
p469
g469
sV21540
p470
g470
sV173043
p471
g471
sV268605
p472
g472
sV89354
p473
g473
sV106409
p474
g474
sV71635
p475
g475
sV13104
p476
g476
sV61000
p477
g477
sV73923
p478
g478
sV207514
p479
g479
sV124155
p480
g480
sV76364
p481
g481
sV30620
p482
g482
sV83325
p483
g483
sV150011
p484
g484
sV42472
p485
g485
sV130199
p486
g486
sV507747
p487
g389
sV128956
p488
g488
sV16599
p489
g489
sV71840
p490
g490
sV15773
p491
g491
sV12681
p492
g492
sV43004
p493
g493
sV12687
p494
g494
sV12689
p495
g495
sV29808
p496
g496
sV133733
p497
g497
sV76310
p498
g498
sV100043
p499
g499
sV30535
p500
g500
sV71119
p501
g501
sV187175
p502
g502
sV16473
p503
g503
sV14527
p504
g504
sV106377
p505
g505
sV106376
p506
g506
sV76501
p507
g507
sV15459
p508
g508
sV76503
p509
g509
sV76502
p510
g510
sV76505
p511
g511
sV76504
p512
g512
sV29598
p513
g513
sV3491
p514
g514
sV207382
p515
g515
sV207383
p516
g516
sV207380
p517
g517
sV212765
p518
g518
sV207386
p519
g519
sV207387
p520
g520
sV207384
p521
g521
sV207385
p522
g522
sV19815
p523
g523
sV207388
p524
g524
sV207389
p525
g525
sV11667
p526
g526
sV207407
p527
g527
sV207775
p528
g528
sV67202
p529
g529
sV37110
p530
g530
sV187153
p531
g531
sV11705
p532
g532
sV97313
p533
g533
sV549
p534
g534
sV204756
p535
g535
sV11703
p536
g536
sV7566
p537
g537
sV207791
p538
g538
sV205525
p539
g539
sV205526
p540
g540
sV205528
p541
g541
sV95291
p542
g542
sV135114
p543
g543
sV84987
p544
g544
sV46905
p545
g545
sV106383
p546
g546
sV507729
p547
g547
sV13928
p548
g548
sV114376
p549
g549
sV160928
p550
g550
sV9980
p551
g551
sV12823
p552
g552
sV70289
p553
g553
sV11027
p554
g554
sV59317
p555
g555
sV25180
p556
g556
sV207498
p557
g557
sV55918
p558
g558
sV207496
p559
g559
sV11766
p560
g560
sV59319
p561
g561
sV207495
p562
g562
sV207492
p563
g563
sV207493
p564
g564
sV207490
p565
g565
sV33639
p566
g566
sV418309
p567
g567
sV416
p568
g568
sV166006
p569
g569
sV410
p570
g570
sV412
p571
g571
sV207497
p572
g572
sV42976
p573
g573
sV21162
p574
g574
sg36
g36
sV171848
p575
g575
sV170666
p576
g576
sV160927
p577
g577
sV507738
p578
g578
sV13692
p579
g579
sV198595
p580
g580
sV62286
p581
g581
sV25122
p582
g582
sV11800
p583
g583
sV9652
p584
g584
sV282682
p585
g585
sV9651
p586
g586
sV26209
p587
g587
sV68399
p588
g588
sV136322
p589
g589
sV195780
p590
g590
sV67954
p591
g591
sV170396
p592
g592
sV207503
p593
g593
sV21279
p594
g594
sV68391
p595
g595
sV43357
p596
g596
sV164436
p597
g597
sV71361
p598
g598
sV13148
p599
g599
sV51368
p600
g600
sV207494
p601
g601
sV207437
p602
g602
sV207405
p603
g603
sV207404
p604
g604
sV103208
p605
g605
sV207406
p606
g606
sV207401
p607
g607
sV207400
p608
g608
sV207403
p609
g609
sV9525
p610
g610
sV74527
p611
g611
sV80352
p612
g612
sV207409
p613
g613
sV13224
p614
g614
sV110095
p615
g615
sV196617
p616
g616
sV207462
p617
g617
sV196594
p618
g618
sV186501
p619
g619
sV32776
p620
g620
sV194480
p621
g621
sV74039
p622
g622
sV20430
p623
g623
sV204470
p624
g624
sV62193
p625
g625
sV62192
p626
g626
sV149987
p627
g627
sV62190
p628
g628
sV12722
p629
g629
sV25140
p630
g630
sV93517
p631
g631
sV328928
p632
g632
sV207451
p633
g633
sV23869
p634
g634
sV43752
p635
g635
sV19286
p636
g636
sV207456
p637
g637
sV31972
p638
g638
sV155842
p639
g639
sV43322
p640
g640
sV71561
p641
g641
sV206043
p642
g642
sV9962
p643
g643
sV30471
p644
g644
sV197457
p645
g645
sV25130
p646
g646
sV179438
p647
g647
sV83075
p648
g648
sV30300
p649
g649
sV151619
p650
g650
sV186837
p651
g651
sV12898
p652
g652
sV207454
p653
g653
sV76348
p654
g654
sV62266
p655
g655
sV81355
p656
g656
sV12033
p657
g657
sV183562
p658
g658
sV169968
p659
g659
sV42406
p660
g660
sV113974
p661
g661
sV207504
p662
g662
sV68377
p663
g663
sV68376
p664
g664
sV68371
p665
g665
sV68370
p666
g666
sV179323
p667
g667
sV42393
p668
g668
sV42392
p669
g669
sV42391
p670
g670
sV20866
p671
g671
sV97508
p672
g672
sV46361
p673
g673
sV461
p674
g674
sV170096
p675
g675
sV206262
p676
g676
sV25258
p677
g677
sV30394
p678
g678
sV80403
p679
g679
sV507752
p680
g680
sV204500
p681
g681
sV109266
p682
g682
sV16422
p683
g683
sV27252
p684
g684
sV11069
p685
g685
sV965
p686
g686
sV12105
p687
g687
sV206349
p688
g688
sV206348
p689
g689
sV14420
p690
g690
sV13590
p691
g691
sV206347
p692
g692
sV11062
p693
g693
sV312258
p694
g694
sV11067
p695
g695
sV1106
p696
g696
sV29161
p697
g697
sV131926
p698
g698
sV72107
p699
g699
sV42810
p700
g700
sV23736
p701
g701
sV207441
p702
g702
sV2638
p703
g703
sV170622
p704
g704
sV17402
p705
g705
sV207507
p706
g706
sV507755
p707
g707
sV190314
p708
g708
sV5052
p709
g709
sV204533
p710
g710
sV103636
p711
g711
sV204447
p712
g712
sV185804
p713
g713
sV204443
p714
g714
sV106397
p715
g715
sV106396
p716
g716
sV106395
p717
g717
sV106394
p718
g718
sV106391
p719
g719
sV160934
p720
g720
sV207449
p721
g721
sV207448
p722
g722
sV21292
p723
g723
sV14354
p724
g724
sV174336
p725
g725
sV70526
p726
g726
sV204567
p727
g727
sV204566
p728
g728
sV207443
p729
g729
sV207442
p730
g730
sV136448
p731
g731
sV207444
p732
g732
sV207447
p733
g733
sV207446
p734
g734
sV25678
p735
g735
sV73913
p736
g736
sV207509
p737
g737
sV507533
p738
g738
sV43365
p739
g739
sV118188
p740
g740
sV42862
p741
g741
sV172400
p742
g742
sV22511
p743
g743
sV22516
p744
g744
sV64818
p745
g745
sV13709
p746
g746
sV25095
p747
g747
sV11258
p748
g748
sV78306
p749
g749
sV64810
p750
g750
sV64811
p751
g751
sV64813
p752
g752
sV501865
p753
g753
sV64815
p754
g754
sV26465
p755
g755
sV64817
p756
g756
sV206370
p757
g757
sV33456
p758
g758
sV11960
p759
g759
sV188945
p760
g760
sV51311
p761
g761
sV51310
p762
g762
sV51317
p763
g763
sV179053
p764
g764
sV51315
p765
g765
sV51314
p766
g766
sV12924
p767
g767
sV12929
p768
g768
sV155543
p769
g769
sV207396
p770
g770
sV2969
p771
g771
sV13714
p772
g772
sV12775
p773
g773
sV12771
p774
g774
sV42562
p775
g775
sV207398
p776
g776
sV27558
p777
g777
sV178284
p778
g778
sV196625
p779
g779
sV12779
p780
g780
sV151945
p781
g781
sV12677
p782
g782
sV44035
p783
g783
sV13007
p784
g784
sV56153
p785
g785
sV152482
p786
g786
sV153615
p787
g787
sV40237
p788
g788
sV118528
p789
g789
sV30989
p790
g790
sV166819
p791
g791
sV207391
p792
g792
sV25452
p793
g793
sV30291
p794
g794
sV207392
p795
g795
sV207395
p796
g796
sV207394
p797
g797
sV207397
p798
g798
sV47904
p799
g799
sV207399
p800
g800
sV206308
p801
g801
sV37071
p802
g802
sV11676
p803
g803
sV11103
p804
g804
sV25897
p805
g805
sV11107
p806
g806
sV30343
p807
g807
sV154469
p808
g808
sV30345
p809
g809
sV207440
p810
g810
sV29045
p811
g811
sV12783
p812
g812
sV15985
p813
g813
sV174115
p814
g814
sV111443
p815
g815
sV187564
p816
g816
sV13854
p817
g817
sV11106
p818
g818
sV46880
p819
g819
sV42911
p820
g820
sV187976
p821
g821
sV186343
p822
g822
sV40434
p823
g823
sV125693
p824
g824
sV175103
p825
g825
sV59269
p826
g826
sV207402
p827
g827
sV204521
p828
g828
sV207489
p829
g829
sV207488
p830
g830
sV182211
p831
g831
sV207485
p832
g832
sV207484
p833
g833
sV207487
p834
g834
sV204528
p835
g835
sV170299
p836
g836
sV207414
p837
g837
sV207483
p838
g838
sV207482
p839
g839
sV114355
p840
g840
sV28480
p841
g841
sV34033
p842
g842
sV207718
p843
g843
sV207390
p844
g844
sV35030
p845
g845
sV29048
p846
g846
sV427
p847
g847
sV114944
p848
g848
sV207410
p849
g849
sV127536
p850
g850
sV126439
p851
g851
sV127535
p852
g852
sV69862
p853
g853
sg152
g152
sV507748
p854
g854
sV172255
p855
g855
sV43207
p856
g856
sV42590
p857
g857
sV57993
p858
g858
sV207438
p859
g859
sV37030
p860
g860
sV57600
p861
g861
sV109244
p862
g862
sV109246
p863
g863
sV109247
p864
g864
sV81288
p865
g865
sV204869
p866
g866
sV210608
p867
g867
sV3468
p868
g868
sV207430
p869
g869
sV207431
p870
g870
sV203199
p871
g871
sV12553
p872
g872
sV113768
p873
g873
sV207435
p874
g874
sV187849
p875
g875
sV109256
p876
g876
sV70770
p877
g877
sV207439
p878
g878
sV38669
p879
g879
sV27597
p880
g880
sV176870
p881
g881
sV336985
p882
g882
sV34963
p883
g883
sV129946
p884
g884
sV12637
p885
g885
sV12730
p886
g886
sV31886
p887
g887
sV174656
p888
g888
sV64821
p889
g889
sV64820
p890
g890
sV64823
p891
g891
sV64822
p892
g892
sV64825
p893
g893
sV64824
p894
g894
sV64827
p895
g895
sV64826
p896
g896
sV64829
p897
g897
sV64828
p898
g898
sV30545
p899
g899
sV204547
p900
g900
sV207512
p901
g901
sV151216
p902
g902
sV71024
p903
g903
sV48085
p904
g904
sV73458
p905
g905
sV170478
p906
g906
sV25141
p907
g907
sV101191
p908
g908
sV98128
p909
g909
sV17359
p910
g910
sV76382
p911
g911
sV76381
p912
g912
sV207475
p913
g913
sV69410
p914
g914
sV97316
p915
g915
sV30313
p916
g916
sV69327
p917
g917
sV25385
p918
g918
sV13518
p919
g919
sV7649
p920
g920
sV14310
p921
g921
sV207425
p922
g922
sV50544
p923
g923
sV207450
p924
g924
sV30793
p925
g925
sV82425
p926
g926
sV207508
p927
g927
sV128529
p928
g928
sV30794
p929
g929
sV160641
p930
g930
sV28928
p931
g931
sV12747
p932
g932
sV207473
p933
g933
sV207500
p934
g934
sV207501
p935
g935
sV12743
p936
g936
sV62279
p937
g937
sV179333
p938
g938
sV21320
p939
g939
sV204464
p940
g940
sV11419
p941
g941
sV132520
p942
g942
sV43434
p943
g943
sV204465
p944
g944
sV175872
p945
g945
sV10679
p946
g946
sV207505
p947
g947
sV42389
p948
g948
sV507754
p949
g949
sV42385
p950
g950
sV507756
p951
g951
sV42387
p952
g952
sV507750
p953
g953
sV507751
p954
g954
sV12893
p955
g955
sV507753
p956
g702
sV205924
p957
g957
sV16822
p958
g958
sV76090
p959
g959
sV13347
p960
g960
sV76094
p961
g961
sV109330
p962
g962
sV109331
p963
g963
sV28373
p964
g964
sV13586
p965
g965
sV170019
p966
g966
sV206371
p967
g967
sV206372
p968
g968
sV206373
p969
g969
sV206374
p970
g970
sV204518
p971
g971
sV207393
p972
g972
sV191999
p973
g973
sV1110
p974
g974
sV15972
p975
g975
sV43151
p976
g976
sV52586
p977
g977
sV30083
p978
g978
sV29172
p979
g979
sV126754
p980
g980
sV91973
p981
g912
sV190306
p982
g982
sV97407
p983
g983
sV136455
p984
g984
sV113639
p985
g985
sV72309
p986
g986
sV2643
p987
g987
sV106378
p988
g988
sV170043
p989
g989
sV207408
p990
g990
sV21244
p991
g991
sV12805
p992
g992
sV204466
p993
g993
sV12555
p994
g994
sV207376
p995
g995
sV12558
p996
g996
sV481
p997
g997
sV207474
p998
g998
sV204452
p999
g999
sV15074
p1000
g1000
sV207477
p1001
g1001
sV15073
p1002
g1002
sV207472
p1003
g1003
sV204454
p1004
g1004
sV207476
p1005
g1005
sV207478
p1006
g1006
sV207479
p1007
g1007
sV207372
p1008
g1008
sV473
p1009
g1009
sV73885
p1010
g1010
sV42770
p1011
g1011
sV25833
p1012
g1012
sV207378
p1013
g1013
sV207377
p1014
g1014
sV174326
p1015
g1015
sV207375
p1016
g1016
sV207374
p1017
g1017
sV207373
p1018
g1018
sV204517
p1019
g1019
sV207371
p1020
g1020
sV207370
p1021
g1021
s.